target datalayout = "e-m:e-p270:32:32-p271:32:32-p272:64:64-i64:64-i128:128-f80:128-n8:16:32:64-S128"
target triple = "x86_64-unknown-linux-gnu"

%"class.std::__shared_count" = type { ptr }
%"class.OpenColorIO_v2_4dev::DynamicPropertyImpl" = type <{ %"class.OpenColorIO_v2_4dev::DynamicProperty", i32, i8, [3 x i8] }>
%"class.OpenColorIO_v2_4dev::DynamicProperty" = type { ptr }
%"class.std::__shared_ptr.13" = type { ptr, %"class.std::__shared_count" }

@_ZTIN19OpenColorIO_v2_4dev21DynamicPropertyDoubleE = linkonce_odr constant { ptr, ptr } { ptr getelementptr inbounds (ptr, ptr @_ZTVN10__cxxabiv117__class_type_infoE, i64 2), ptr @_ZTSN19OpenColorIO_v2_4dev21DynamicPropertyDoubleE }, comdat, align 8
@_ZTIN19OpenColorIO_v2_4dev29DynamicPropertyGradingPrimaryE = linkonce_odr constant { ptr, ptr } { ptr getelementptr inbounds (ptr, ptr @_ZTVN10__cxxabiv117__class_type_infoE, i64 2), ptr @_ZTSN19OpenColorIO_v2_4dev29DynamicPropertyGradingPrimaryE }, comdat, align 8
@_ZTIN19OpenColorIO_v2_4dev30DynamicPropertyGradingRGBCurveE = linkonce_odr constant { ptr, ptr } { ptr getelementptr inbounds (ptr, ptr @_ZTVN10__cxxabiv117__class_type_infoE, i64 2), ptr @_ZTSN19OpenColorIO_v2_4dev30DynamicPropertyGradingRGBCurveE }, comdat, align 8
@_ZTIN19OpenColorIO_v2_4dev26DynamicPropertyGradingToneE = linkonce_odr constant { ptr, ptr } { ptr getelementptr inbounds (ptr, ptr @_ZTVN10__cxxabiv117__class_type_infoE, i64 2), ptr @_ZTSN19OpenColorIO_v2_4dev26DynamicPropertyGradingToneE }, comdat, align 8

; Function Attrs: mustprogress nounwind uwtable
define linkonce_odr hidden noundef ptr @_ZNKSt12__shared_ptrIKN19OpenColorIO_v2_4dev15GradingRGBCurveELN9__gnu_cxx12_Lock_policyE2EE3getEv(ptr noundef nonnull align 8 dereferenceable(16) %this) #1 comdat align 2 {
entry:
  %this.addr = alloca ptr, align 8
  store ptr %this, ptr %this.addr, align 8
  %this1 = load ptr, ptr %this.addr, align 8
  %_M_ptr = getelementptr inbounds %"class.std::__shared_ptr.13", ptr %this1, i32 0, i32 0
  %0 = load ptr, ptr %_M_ptr, align 8
  ret ptr %0
}

; Function Attrs: mustprogress nounwind uwtable
define linkonce_odr hidden noundef ptr @_ZNKSt19__shared_ptr_accessIKN19OpenColorIO_v2_4dev15GradingRGBCurveELN9__gnu_cxx12_Lock_policyE2ELb0ELb0EE6_M_getEv(ptr noundef nonnull align 1 dereferenceable(1) %this) #1 comdat align 2 {
entry:
  %this.addr = alloca ptr, align 8
  store ptr %this, ptr %this.addr, align 8
  %this1 = load ptr, ptr %this.addr, align 8
  %call = call noundef ptr @_ZNKSt12__shared_ptrIKN19OpenColorIO_v2_4dev15GradingRGBCurveELN9__gnu_cxx12_Lock_policyE2EE3getEv(ptr noundef nonnull align 8 dereferenceable(16) %this1) #13
  ret ptr %call
}

; Function Attrs: mustprogress nounwind uwtable
define linkonce_odr hidden noundef nonnull align 8 dereferenceable(8) ptr @_ZNKSt19__shared_ptr_accessIKN19OpenColorIO_v2_4dev15GradingRGBCurveELN9__gnu_cxx12_Lock_policyE2ELb0ELb0EEdeEv(ptr noundef nonnull align 1 dereferenceable(1) %this) #1 comdat align 2 {
entry:
  %this.addr = alloca ptr, align 8
  store ptr %this, ptr %this.addr, align 8
  %this1 = load ptr, ptr %this.addr, align 8
  br label %do.body

do.body:                                          ; preds = %entry
  br label %do.cond

do.cond:                                          ; preds = %do.body
  br label %do.end

do.end:                                           ; preds = %do.cond
  %call = call noundef ptr @_ZNKSt19__shared_ptr_accessIKN19OpenColorIO_v2_4dev15GradingRGBCurveELN9__gnu_cxx12_Lock_policyE2ELb0ELb0EE6_M_getEv(ptr noundef nonnull align 1 dereferenceable(1) %this1) #13
  ret ptr %call
}

; Function Attrs: mustprogress uwtable
define hidden noundef zeroext i1 @_ZNK19OpenColorIO_v2_4dev19DynamicPropertyImpl6equalsERKS0_(ptr noundef nonnull align 8 dereferenceable(13) %this, ptr noundef nonnull align 8 dereferenceable(13) %rhs) #0 align 2 {
entry:
  %retval = alloca i1, align 1
  %this.addr = alloca ptr, align 8
  %rhs.addr = alloca ptr, align 8
  %lhst = alloca ptr, align 8
  %rhst = alloca ptr, align 8
  %lhst26 = alloca ptr, align 8
  %rhst30 = alloca ptr, align 8
  %lhst47 = alloca ptr, align 8
  %rhst51 = alloca ptr, align 8
  %lhst70 = alloca ptr, align 8
  %rhst74 = alloca ptr, align 8
  store ptr %this, ptr %this.addr, align 8
  store ptr %rhs, ptr %rhs.addr, align 8
  %this1 = load ptr, ptr %this.addr, align 8
  %0 = load ptr, ptr %rhs.addr, align 8
  %cmp = icmp eq ptr %this1, %0
  br i1 %cmp, label %if.then, label %if.end

if.then:                                          ; preds = %entry
  store i1 true, ptr %retval, align 1
  br label %return

if.end:                                           ; preds = %entry
  %m_isDynamic = getelementptr inbounds %"class.OpenColorIO_v2_4dev::DynamicPropertyImpl", ptr %this1, i32 0, i32 2
  %1 = load i8, ptr %m_isDynamic, align 4
  %tobool = trunc i8 %1 to i1
  %conv = zext i1 %tobool to i32
  %2 = load ptr, ptr %rhs.addr, align 8
  %m_isDynamic2 = getelementptr inbounds %"class.OpenColorIO_v2_4dev::DynamicPropertyImpl", ptr %2, i32 0, i32 2
  %3 = load i8, ptr %m_isDynamic2, align 4
  %tobool3 = trunc i8 %3 to i1
  %conv4 = zext i1 %tobool3 to i32
  %cmp5 = icmp eq i32 %conv, %conv4
  br i1 %cmp5, label %land.lhs.true, label %if.end90

land.lhs.true:                                    ; preds = %if.end
  %m_type = getelementptr inbounds %"class.OpenColorIO_v2_4dev::DynamicPropertyImpl", ptr %this1, i32 0, i32 1
  %4 = load i32, ptr %m_type, align 8
  %5 = load ptr, ptr %rhs.addr, align 8
  %m_type6 = getelementptr inbounds %"class.OpenColorIO_v2_4dev::DynamicPropertyImpl", ptr %5, i32 0, i32 1
  %6 = load i32, ptr %m_type6, align 8
  %cmp7 = icmp eq i32 %4, %6
  br i1 %cmp7, label %if.then8, label %if.end90

if.then8:                                         ; preds = %land.lhs.true
  %m_isDynamic9 = getelementptr inbounds %"class.OpenColorIO_v2_4dev::DynamicPropertyImpl", ptr %this1, i32 0, i32 2
  %7 = load i8, ptr %m_isDynamic9, align 4
  %tobool10 = trunc i8 %7 to i1
  br i1 %tobool10, label %if.else, label %if.then11

if.then11:                                        ; preds = %if.then8
  %vtable = load ptr, ptr %this1, align 8
  %vfn = getelementptr inbounds ptr, ptr %vtable, i64 0
  %8 = load ptr, ptr %vfn, align 8
  %call = call noundef i32 %8(ptr noundef nonnull align 8 dereferenceable(13) %this1) #13
  switch i32 %call, label %sw.epilog [
    i32 1, label %sw.bb
    i32 0, label %sw.bb
    i32 2, label %sw.bb
    i32 3, label %sw.bb25
    i32 4, label %sw.bb46
    i32 5, label %sw.bb69
  ]

sw.bb:                                            ; preds = %if.then11, %if.then11, %if.then11
  %9 = icmp eq ptr %this1, null
  br i1 %9, label %dynamic_cast.null, label %dynamic_cast.notnull

dynamic_cast.notnull:                             ; preds = %sw.bb
  %10 = call ptr @__dynamic_cast(ptr %this1, ptr @_ZTIN19OpenColorIO_v2_4dev19DynamicPropertyImplE, ptr @_ZTIN19OpenColorIO_v2_4dev21DynamicPropertyDoubleE, i64 -2) #13
  br label %dynamic_cast.end

dynamic_cast.null:                                ; preds = %sw.bb
  br label %dynamic_cast.end

dynamic_cast.end:                                 ; preds = %dynamic_cast.null, %dynamic_cast.notnull
  %11 = phi ptr [ %10, %dynamic_cast.notnull ], [ null, %dynamic_cast.null ]
  store ptr %11, ptr %lhst, align 8
  %12 = load ptr, ptr %rhs.addr, align 8
  %13 = icmp eq ptr %12, null
  br i1 %13, label %dynamic_cast.null13, label %dynamic_cast.notnull12

dynamic_cast.notnull12:                           ; preds = %dynamic_cast.end
  %14 = call ptr @__dynamic_cast(ptr %12, ptr @_ZTIN19OpenColorIO_v2_4dev19DynamicPropertyImplE, ptr @_ZTIN19OpenColorIO_v2_4dev21DynamicPropertyDoubleE, i64 -2) #13
  br label %dynamic_cast.end14

dynamic_cast.null13:                              ; preds = %dynamic_cast.end
  br label %dynamic_cast.end14

dynamic_cast.end14:                               ; preds = %dynamic_cast.null13, %dynamic_cast.notnull12
  %15 = phi ptr [ %14, %dynamic_cast.notnull12 ], [ null, %dynamic_cast.null13 ]
  store ptr %15, ptr %rhst, align 8
  %16 = load ptr, ptr %lhst, align 8
  %tobool15 = icmp ne ptr %16, null
  br i1 %tobool15, label %land.lhs.true16, label %land.end

land.lhs.true16:                                  ; preds = %dynamic_cast.end14
  %17 = load ptr, ptr %rhst, align 8
  %tobool17 = icmp ne ptr %17, null
  br i1 %tobool17, label %land.rhs, label %land.end

land.rhs:                                         ; preds = %land.lhs.true16
  %18 = load ptr, ptr %lhst, align 8
  %vtable18 = load ptr, ptr %18, align 8
  %vfn19 = getelementptr inbounds ptr, ptr %vtable18, i64 0
  %19 = load ptr, ptr %vfn19, align 8
  %call20 = call noundef double %19(ptr noundef nonnull align 8 dereferenceable(8) %18)
  %20 = load ptr, ptr %rhst, align 8
  %vtable21 = load ptr, ptr %20, align 8
  %vfn22 = getelementptr inbounds ptr, ptr %vtable21, i64 0
  %21 = load ptr, ptr %vfn22, align 8
  %call23 = call noundef double %21(ptr noundef nonnull align 8 dereferenceable(8) %20)
  %cmp24 = fcmp oeq double %call20, %call23
  br label %land.end

land.end:                                         ; preds = %land.rhs, %land.lhs.true16, %dynamic_cast.end14
  %22 = phi i1 [ false, %land.lhs.true16 ], [ false, %dynamic_cast.end14 ], [ %cmp24, %land.rhs ]
  store i1 %22, ptr %retval, align 1
  br label %return

sw.bb25:                                          ; preds = %if.then11
  %23 = icmp eq ptr %this1, null
  br i1 %23, label %dynamic_cast.null28, label %dynamic_cast.notnull27

dynamic_cast.notnull27:                           ; preds = %sw.bb25
  %24 = call ptr @__dynamic_cast(ptr %this1, ptr @_ZTIN19OpenColorIO_v2_4dev19DynamicPropertyImplE, ptr @_ZTIN19OpenColorIO_v2_4dev29DynamicPropertyGradingPrimaryE, i64 -2) #13
  br label %dynamic_cast.end29

dynamic_cast.null28:                              ; preds = %sw.bb25
  br label %dynamic_cast.end29

dynamic_cast.end29:                               ; preds = %dynamic_cast.null28, %dynamic_cast.notnull27
  %25 = phi ptr [ %24, %dynamic_cast.notnull27 ], [ null, %dynamic_cast.null28 ]
  store ptr %25, ptr %lhst26, align 8
  %26 = load ptr, ptr %rhs.addr, align 8
  %27 = icmp eq ptr %26, null
  br i1 %27, label %dynamic_cast.null32, label %dynamic_cast.notnull31

dynamic_cast.notnull31:                           ; preds = %dynamic_cast.end29
  %28 = call ptr @__dynamic_cast(ptr %26, ptr @_ZTIN19OpenColorIO_v2_4dev19DynamicPropertyImplE, ptr @_ZTIN19OpenColorIO_v2_4dev29DynamicPropertyGradingPrimaryE, i64 -2) #13
  br label %dynamic_cast.end33

dynamic_cast.null32:                              ; preds = %dynamic_cast.end29
  br label %dynamic_cast.end33

dynamic_cast.end33:                               ; preds = %dynamic_cast.null32, %dynamic_cast.notnull31
  %29 = phi ptr [ %28, %dynamic_cast.notnull31 ], [ null, %dynamic_cast.null32 ]
  store ptr %29, ptr %rhst30, align 8
  %30 = load ptr, ptr %lhst26, align 8
  %tobool34 = icmp ne ptr %30, null
  br i1 %tobool34, label %land.lhs.true35, label %land.end45

land.lhs.true35:                                  ; preds = %dynamic_cast.end33
  %31 = load ptr, ptr %rhst30, align 8
  %tobool36 = icmp ne ptr %31, null
  br i1 %tobool36, label %land.rhs37, label %land.end45

land.rhs37:                                       ; preds = %land.lhs.true35
  %32 = load ptr, ptr %lhst26, align 8
  %vtable38 = load ptr, ptr %32, align 8
  %vfn39 = getelementptr inbounds ptr, ptr %vtable38, i64 0
  %33 = load ptr, ptr %vfn39, align 8
  %call40 = call noundef nonnull align 8 dereferenceable(272) ptr %33(ptr noundef nonnull align 8 dereferenceable(8) %32)
  %34 = load ptr, ptr %rhst30, align 8
  %vtable41 = load ptr, ptr %34, align 8
  %vfn42 = getelementptr inbounds ptr, ptr %vtable41, i64 0
  %35 = load ptr, ptr %vfn42, align 8
  %call43 = call noundef nonnull align 8 dereferenceable(272) ptr %35(ptr noundef nonnull align 8 dereferenceable(8) %34)
  %call44 = call noundef zeroext i1 @_ZN19OpenColorIO_v2_4deveqERKNS_14GradingPrimaryES2_(ptr noundef nonnull align 8 dereferenceable(272) %call40, ptr noundef nonnull align 8 dereferenceable(272) %call43)
  br label %land.end45

land.end45:                                       ; preds = %land.rhs37, %land.lhs.true35, %dynamic_cast.end33
  %36 = phi i1 [ false, %land.lhs.true35 ], [ false, %dynamic_cast.end33 ], [ %call44, %land.rhs37 ]
  store i1 %36, ptr %retval, align 1
  br label %return

sw.bb46:                                          ; preds = %if.then11
  %37 = icmp eq ptr %this1, null
  br i1 %37, label %dynamic_cast.null49, label %dynamic_cast.notnull48

dynamic_cast.notnull48:                           ; preds = %sw.bb46
  %38 = call ptr @__dynamic_cast(ptr %this1, ptr @_ZTIN19OpenColorIO_v2_4dev19DynamicPropertyImplE, ptr @_ZTIN19OpenColorIO_v2_4dev30DynamicPropertyGradingRGBCurveE, i64 -2) #13
  br label %dynamic_cast.end50

dynamic_cast.null49:                              ; preds = %sw.bb46
  br label %dynamic_cast.end50

dynamic_cast.end50:                               ; preds = %dynamic_cast.null49, %dynamic_cast.notnull48
  %39 = phi ptr [ %38, %dynamic_cast.notnull48 ], [ null, %dynamic_cast.null49 ]
  store ptr %39, ptr %lhst47, align 8
  %40 = load ptr, ptr %rhs.addr, align 8
  %41 = icmp eq ptr %40, null
  br i1 %41, label %dynamic_cast.null53, label %dynamic_cast.notnull52

dynamic_cast.notnull52:                           ; preds = %dynamic_cast.end50
  %42 = call ptr @__dynamic_cast(ptr %40, ptr @_ZTIN19OpenColorIO_v2_4dev19DynamicPropertyImplE, ptr @_ZTIN19OpenColorIO_v2_4dev30DynamicPropertyGradingRGBCurveE, i64 -2) #13
  br label %dynamic_cast.end54

dynamic_cast.null53:                              ; preds = %dynamic_cast.end50
  br label %dynamic_cast.end54

dynamic_cast.end54:                               ; preds = %dynamic_cast.null53, %dynamic_cast.notnull52
  %43 = phi ptr [ %42, %dynamic_cast.notnull52 ], [ null, %dynamic_cast.null53 ]
  store ptr %43, ptr %rhst51, align 8
  %44 = load ptr, ptr %lhst47, align 8
  %tobool55 = icmp ne ptr %44, null
  br i1 %tobool55, label %land.lhs.true56, label %land.end68

land.lhs.true56:                                  ; preds = %dynamic_cast.end54
  %45 = load ptr, ptr %rhst51, align 8
  %tobool57 = icmp ne ptr %45, null
  br i1 %tobool57, label %land.rhs58, label %land.end68

land.rhs58:                                       ; preds = %land.lhs.true56
  %46 = load ptr, ptr %lhst47, align 8
  %vtable59 = load ptr, ptr %46, align 8
  %vfn60 = getelementptr inbounds ptr, ptr %vtable59, i64 0
  %47 = load ptr, ptr %vfn60, align 8
  %call61 = call noundef nonnull align 8 dereferenceable(16) ptr %47(ptr noundef nonnull align 8 dereferenceable(8) %46)
  %call62 = call noundef nonnull align 8 dereferenceable(8) ptr @_ZNKSt19__shared_ptr_accessIKN19OpenColorIO_v2_4dev15GradingRGBCurveELN9__gnu_cxx12_Lock_policyE2ELb0ELb0EEdeEv(ptr noundef nonnull align 1 dereferenceable(1) %call61) #13
  %48 = load ptr, ptr %rhst51, align 8
  %vtable63 = load ptr, ptr %48, align 8
  %vfn64 = getelementptr inbounds ptr, ptr %vtable63, i64 0
  %49 = load ptr, ptr %vfn64, align 8
  %call65 = call noundef nonnull align 8 dereferenceable(16) ptr %49(ptr noundef nonnull align 8 dereferenceable(8) %48)
  %call66 = call noundef nonnull align 8 dereferenceable(8) ptr @_ZNKSt19__shared_ptr_accessIKN19OpenColorIO_v2_4dev15GradingRGBCurveELN9__gnu_cxx12_Lock_policyE2ELb0ELb0EEdeEv(ptr noundef nonnull align 1 dereferenceable(1) %call65) #13
  %call67 = call noundef zeroext i1 @_ZN19OpenColorIO_v2_4deveqERKNS_15GradingRGBCurveES2_(ptr noundef nonnull align 8 dereferenceable(8) %call62, ptr noundef nonnull align 8 dereferenceable(8) %call66)
  br label %land.end68

land.end68:                                       ; preds = %land.rhs58, %land.lhs.true56, %dynamic_cast.end54
  %50 = phi i1 [ false, %land.lhs.true56 ], [ false, %dynamic_cast.end54 ], [ %call67, %land.rhs58 ]
  store i1 %50, ptr %retval, align 1
  br label %return

sw.bb69:                                          ; preds = %if.then11
  %51 = icmp eq ptr %this1, null
  br i1 %51, label %dynamic_cast.null72, label %dynamic_cast.notnull71

dynamic_cast.notnull71:                           ; preds = %sw.bb69
  %52 = call ptr @__dynamic_cast(ptr %this1, ptr @_ZTIN19OpenColorIO_v2_4dev19DynamicPropertyImplE, ptr @_ZTIN19OpenColorIO_v2_4dev26DynamicPropertyGradingToneE, i64 -2) #13
  br label %dynamic_cast.end73

dynamic_cast.null72:                              ; preds = %sw.bb69
  br label %dynamic_cast.end73

dynamic_cast.end73:                               ; preds = %dynamic_cast.null72, %dynamic_cast.notnull71
  %53 = phi ptr [ %52, %dynamic_cast.notnull71 ], [ null, %dynamic_cast.null72 ]
  store ptr %53, ptr %lhst70, align 8
  %54 = load ptr, ptr %rhs.addr, align 8
  %55 = icmp eq ptr %54, null
  br i1 %55, label %dynamic_cast.null76, label %dynamic_cast.notnull75

dynamic_cast.notnull75:                           ; preds = %dynamic_cast.end73
  %56 = call ptr @__dynamic_cast(ptr %54, ptr @_ZTIN19OpenColorIO_v2_4dev19DynamicPropertyImplE, ptr @_ZTIN19OpenColorIO_v2_4dev26DynamicPropertyGradingToneE, i64 -2) #13
  br label %dynamic_cast.end77

dynamic_cast.null76:                              ; preds = %dynamic_cast.end73
  br label %dynamic_cast.end77

dynamic_cast.end77:                               ; preds = %dynamic_cast.null76, %dynamic_cast.notnull75
  %57 = phi ptr [ %56, %dynamic_cast.notnull75 ], [ null, %dynamic_cast.null76 ]
  store ptr %57, ptr %rhst74, align 8
  %58 = load ptr, ptr %lhst70, align 8
  %tobool78 = icmp ne ptr %58, null
  br i1 %tobool78, label %land.lhs.true79, label %land.end89

land.lhs.true79:                                  ; preds = %dynamic_cast.end77
  %59 = load ptr, ptr %rhst74, align 8
  %tobool80 = icmp ne ptr %59, null
  br i1 %tobool80, label %land.rhs81, label %land.end89

land.rhs81:                                       ; preds = %land.lhs.true79
  %60 = load ptr, ptr %lhst70, align 8
  %vtable82 = load ptr, ptr %60, align 8
  %vfn83 = getelementptr inbounds ptr, ptr %vtable82, i64 0
  %61 = load ptr, ptr %vfn83, align 8
  %call84 = call noundef nonnull align 8 dereferenceable(248) ptr %61(ptr noundef nonnull align 8 dereferenceable(8) %60)
  %62 = load ptr, ptr %rhst74, align 8
  %vtable85 = load ptr, ptr %62, align 8
  %vfn86 = getelementptr inbounds ptr, ptr %vtable85, i64 0
  %63 = load ptr, ptr %vfn86, align 8
  %call87 = call noundef nonnull align 8 dereferenceable(248) ptr %63(ptr noundef nonnull align 8 dereferenceable(8) %62)
  %call88 = call noundef zeroext i1 @_ZN19OpenColorIO_v2_4deveqERKNS_11GradingToneES2_(ptr noundef nonnull align 8 dereferenceable(248) %call84, ptr noundef nonnull align 8 dereferenceable(248) %call87)
  br label %land.end89

land.end89:                                       ; preds = %land.rhs81, %land.lhs.true79, %dynamic_cast.end77
  %64 = phi i1 [ false, %land.lhs.true79 ], [ false, %dynamic_cast.end77 ], [ %call88, %land.rhs81 ]
  store i1 %64, ptr %retval, align 1
  br label %return

sw.epilog:                                        ; preds = %if.then11
  store i1 false, ptr %retval, align 1
  br label %return

if.else:                                          ; preds = %if.then8
  store i1 false, ptr %retval, align 1
  br label %return

if.end90:                                         ; preds = %land.lhs.true, %if.end
  store i1 false, ptr %retval, align 1
  br label %return

return:                                           ; preds = %if.end90, %if.else, %sw.epilog, %land.end89, %land.end68, %land.end45, %land.end, %if.then
  %65 = load i1, ptr %retval, align 1
  ret i1 %65
}