; Function Attrs: mustprogress uwtable
define hidden noundef zeroext i1 @_ZNK19OpenColorIO_v2_4dev19DynamicPropertyImpl6equalsERKS0_(ptr noundef nonnull align 8 dereferenceable(13) %this, ptr noundef nonnull align 8 dereferenceable(13) %rhs) local_unnamed_addr #0 align 2 {
entry:
  %cmp = icmp eq ptr %this, %rhs
  br i1 %cmp, label %return, label %if.end

if.end:                                           ; preds = %entry
  %m_isDynamic = getelementptr inbounds i8, ptr %this, i64 12
  %0 = load i8, ptr %m_isDynamic, align 4
  %1 = and i8 %0, 1
  %m_isDynamic2 = getelementptr inbounds i8, ptr %rhs, i64 12
  %2 = load i8, ptr %m_isDynamic2, align 4
  %3 = and i8 %2, 1
  %cmp5 = icmp eq i8 %1, %3
  br i1 %cmp5, label %land.lhs.true, label %return

land.lhs.true:                                    ; preds = %if.end
  %tobool.not = icmp ne i8 %1, 0
  %m_type = getelementptr inbounds i8, ptr %this, i64 8
  %4 = load i32, ptr %m_type, align 8
  %m_type6 = getelementptr inbounds i8, ptr %rhs, i64 8
  %5 = load i32, ptr %m_type6, align 8
  %cmp7 = icmp ne i32 %4, %5
  %brmerge = or i1 %tobool.not, %cmp7
  br i1 %brmerge, label %return, label %if.then11

if.then11:                                        ; preds = %land.lhs.true
  %vtable = load ptr, ptr %this, align 8
  %6 = load ptr, ptr %vtable, align 8
  %call = tail call noundef i32 %6(ptr noundef nonnull align 8 dereferenceable(13) %this) #20
  switch i32 %call, label %return [
    i32 1, label %dynamic_cast.notnull
    i32 0, label %dynamic_cast.notnull
    i32 2, label %dynamic_cast.notnull
    i32 3, label %dynamic_cast.notnull27
    i32 4, label %dynamic_cast.notnull48
    i32 5, label %dynamic_cast.notnull71
  ]

dynamic_cast.notnull:                             ; preds = %if.then11, %if.then11, %if.then11
  %7 = tail call ptr @__dynamic_cast(ptr nonnull %this, ptr nonnull @_ZTIN19OpenColorIO_v2_4dev19DynamicPropertyImplE, ptr nonnull @_ZTIN19OpenColorIO_v2_4dev21DynamicPropertyDoubleE, i64 -2) #20
  %8 = tail call ptr @__dynamic_cast(ptr nonnull %rhs, ptr nonnull @_ZTIN19OpenColorIO_v2_4dev19DynamicPropertyImplE, ptr nonnull @_ZTIN19OpenColorIO_v2_4dev21DynamicPropertyDoubleE, i64 -2) #20
  %tobool15 = icmp ne ptr %7, null
  %tobool17 = icmp ne ptr %8, null
  %or.cond = select i1 %tobool15, i1 %tobool17, i1 false
  br i1 %or.cond, label %land.rhs, label %return

land.rhs:                                         ; preds = %dynamic_cast.notnull
  %vtable18 = load ptr, ptr %7, align 8
  %9 = load ptr, ptr %vtable18, align 8
  %call20 = tail call noundef double %9(ptr noundef nonnull align 8 dereferenceable(8) %7)
  %vtable21 = load ptr, ptr %8, align 8
  %10 = load ptr, ptr %vtable21, align 8
  %call23 = tail call noundef double %10(ptr noundef nonnull align 8 dereferenceable(8) %8)
  %cmp24 = fcmp oeq double %call20, %call23
  br label %return

dynamic_cast.notnull27:                           ; preds = %if.then11
  %11 = tail call ptr @__dynamic_cast(ptr nonnull %this, ptr nonnull @_ZTIN19OpenColorIO_v2_4dev19DynamicPropertyImplE, ptr nonnull @_ZTIN19OpenColorIO_v2_4dev29DynamicPropertyGradingPrimaryE, i64 -2) #20
  %12 = tail call ptr @__dynamic_cast(ptr nonnull %rhs, ptr nonnull @_ZTIN19OpenColorIO_v2_4dev19DynamicPropertyImplE, ptr nonnull @_ZTIN19OpenColorIO_v2_4dev29DynamicPropertyGradingPrimaryE, i64 -2) #20
  %tobool34 = icmp ne ptr %11, null
  %tobool36 = icmp ne ptr %12, null
  %or.cond1 = select i1 %tobool34, i1 %tobool36, i1 false
  br i1 %or.cond1, label %land.rhs37, label %return

land.rhs37:                                       ; preds = %dynamic_cast.notnull27
  %vtable38 = load ptr, ptr %11, align 8
  %13 = load ptr, ptr %vtable38, align 8
  %call40 = tail call noundef nonnull align 8 dereferenceable(272) ptr %13(ptr noundef nonnull align 8 dereferenceable(8) %11)
  %vtable41 = load ptr, ptr %12, align 8
  %14 = load ptr, ptr %vtable41, align 8
  %call43 = tail call noundef nonnull align 8 dereferenceable(272) ptr %14(ptr noundef nonnull align 8 dereferenceable(8) %12)
  %call44 = tail call noundef zeroext i1 @_ZN19OpenColorIO_v2_4deveqERKNS_14GradingPrimaryES2_(ptr noundef nonnull align 8 dereferenceable(272) %call40, ptr noundef nonnull align 8 dereferenceable(272) %call43)
  br label %return

dynamic_cast.notnull48:                           ; preds = %if.then11
  %15 = tail call ptr @__dynamic_cast(ptr nonnull %this, ptr nonnull @_ZTIN19OpenColorIO_v2_4dev19DynamicPropertyImplE, ptr nonnull @_ZTIN19OpenColorIO_v2_4dev30DynamicPropertyGradingRGBCurveE, i64 -2) #20
  %16 = tail call ptr @__dynamic_cast(ptr nonnull %rhs, ptr nonnull @_ZTIN19OpenColorIO_v2_4dev19DynamicPropertyImplE, ptr nonnull @_ZTIN19OpenColorIO_v2_4dev30DynamicPropertyGradingRGBCurveE, i64 -2) #20
  %tobool55 = icmp ne ptr %15, null
  %tobool57 = icmp ne ptr %16, null
  %or.cond2 = select i1 %tobool55, i1 %tobool57, i1 false
  br i1 %or.cond2, label %land.rhs58, label %return

land.rhs58:                                       ; preds = %dynamic_cast.notnull48
  %vtable59 = load ptr, ptr %15, align 8
  %17 = load ptr, ptr %vtable59, align 8
  %call61 = tail call noundef nonnull align 8 dereferenceable(16) ptr %17(ptr noundef nonnull align 8 dereferenceable(8) %15)
  %18 = load ptr, ptr %call61, align 8
  %vtable63 = load ptr, ptr %16, align 8
  %19 = load ptr, ptr %vtable63, align 8
  %call65 = tail call noundef nonnull align 8 dereferenceable(16) ptr %19(ptr noundef nonnull align 8 dereferenceable(8) %16)
  %20 = load ptr, ptr %call65, align 8
  %call67 = tail call noundef zeroext i1 @_ZN19OpenColorIO_v2_4deveqERKNS_15GradingRGBCurveES2_(ptr noundef nonnull align 8 dereferenceable(8) %18, ptr noundef nonnull align 8 dereferenceable(8) %20)
  br label %return

dynamic_cast.notnull71:                           ; preds = %if.then11
  %21 = tail call ptr @__dynamic_cast(ptr nonnull %this, ptr nonnull @_ZTIN19OpenColorIO_v2_4dev19DynamicPropertyImplE, ptr nonnull @_ZTIN19OpenColorIO_v2_4dev26DynamicPropertyGradingToneE, i64 -2) #20
  %22 = tail call ptr @__dynamic_cast(ptr nonnull %rhs, ptr nonnull @_ZTIN19OpenColorIO_v2_4dev19DynamicPropertyImplE, ptr nonnull @_ZTIN19OpenColorIO_v2_4dev26DynamicPropertyGradingToneE, i64 -2) #20
  %tobool78 = icmp ne ptr %21, null
  %tobool80 = icmp ne ptr %22, null
  %or.cond3 = select i1 %tobool78, i1 %tobool80, i1 false
  br i1 %or.cond3, label %land.rhs81, label %return

land.rhs81:                                       ; preds = %dynamic_cast.notnull71
  %vtable82 = load ptr, ptr %21, align 8
  %23 = load ptr, ptr %vtable82, align 8
  %call84 = tail call noundef nonnull align 8 dereferenceable(248) ptr %23(ptr noundef nonnull align 8 dereferenceable(8) %21)
  %vtable85 = load ptr, ptr %22, align 8
  %24 = load ptr, ptr %vtable85, align 8
  %call87 = tail call noundef nonnull align 8 dereferenceable(248) ptr %24(ptr noundef nonnull align 8 dereferenceable(8) %22)
  %call88 = tail call noundef zeroext i1 @_ZN19OpenColorIO_v2_4deveqERKNS_11GradingToneES2_(ptr noundef nonnull align 8 dereferenceable(248) %call84, ptr noundef nonnull align 8 dereferenceable(248) %call87)
  br label %return

return:                                           ; preds = %land.lhs.true, %if.end, %if.then11, %dynamic_cast.notnull71, %land.rhs81, %dynamic_cast.notnull48, %land.rhs58, %dynamic_cast.notnull27, %land.rhs37, %dynamic_cast.notnull, %land.rhs, %entry
  %retval.0 = phi i1 [ true, %entry ], [ false, %dynamic_cast.notnull ], [ %cmp24, %land.rhs ], [ false, %dynamic_cast.notnull27 ], [ %call44, %land.rhs37 ], [ false, %dynamic_cast.notnull48 ], [ %call67, %land.rhs58 ], [ false, %dynamic_cast.notnull71 ], [ %call88, %land.rhs81 ], [ false, %if.then11 ], [ false, %land.lhs.true ], [ false, %if.end ]
  ret i1 %retval.0
}